target datalayout = "e-m:e-p270:32:32-p271:32:32-p272:64:64-i64:64-i128:128-f80:128-n8:16:32:64-S128"
target triple = "x86_64-pc-linux-gnu"

%struct.DdManager = type { %struct.DdNode, ptr, ptr, ptr, ptr, ptr, ptr, ptr, i32, i32, double, double, double, i32, i32, i32, i32, i32, i32, ptr, ptr, %struct.DdSubtable, i32, i32, i32, i32, i32, i32, i32, double, i32, i32, i32, ptr, i64, double, i32, ptr, ptr, ptr, ptr, ptr, ptr, ptr, i32, ptr, ptr, ptr, ptr, ptr, ptr, i32, i32, i32, double, i32, i32, i32, i32, double, double, i32, i32, i32, i32, i32, i32, i32, i32, i32, ptr, ptr, i32, i32, i32, i32, i32, i32, ptr, ptr, ptr, ptr, ptr, ptr, ptr, ptr, i32, i64, i64, i64, i32, i64, i64, double, double, double, double, double, double, i32, ptr, ptr, i64 }
%struct.DdNode = type { i32, i32, ptr, %union.anon, i64 }
%union.anon = type { %struct.DdChildren }
%struct.DdChildren = type { ptr, ptr }
%struct.DdSubtable = type { ptr, i32, i32, i32, i32, i32, i32, i32, i32, i32, i32, i32 }

; Function Attrs: nounwind uwtable
define ptr @cuddBddComposeRecur(ptr noundef %0, ptr noundef %1, ptr noundef %2, ptr noundef %3) #0 {
  %5 = alloca ptr, align 8
  %6 = alloca ptr, align 8
  %7 = alloca ptr, align 8
  %8 = alloca ptr, align 8
  %9 = alloca ptr, align 8
  %10 = alloca ptr, align 8
  %11 = alloca ptr, align 8
  %12 = alloca ptr, align 8
  %13 = alloca ptr, align 8
  %14 = alloca ptr, align 8
  %15 = alloca ptr, align 8
  %16 = alloca ptr, align 8
  %17 = alloca ptr, align 8
  %18 = alloca ptr, align 8
  %19 = alloca i32, align 4
  %20 = alloca i32, align 4
  %21 = alloca i32, align 4
  %22 = alloca i32, align 4
  %23 = alloca i32, align 4
  %24 = alloca i32, align 4
  store ptr %0, ptr %6, align 8, !tbaa !3
  store ptr %1, ptr %7, align 8, !tbaa !8
  store ptr %2, ptr %8, align 8, !tbaa !8
  store ptr %3, ptr %9, align 8, !tbaa !8
  call void @llvm.lifetime.start.p0(i64 8, ptr %10) #6
  call void @llvm.lifetime.start.p0(i64 8, ptr %11) #6
  call void @llvm.lifetime.start.p0(i64 8, ptr %12) #6
  call void @llvm.lifetime.start.p0(i64 8, ptr %13) #6
  call void @llvm.lifetime.start.p0(i64 8, ptr %14) #6
  call void @llvm.lifetime.start.p0(i64 8, ptr %15) #6
  call void @llvm.lifetime.start.p0(i64 8, ptr %16) #6
  call void @llvm.lifetime.start.p0(i64 8, ptr %17) #6
  call void @llvm.lifetime.start.p0(i64 8, ptr %18) #6
  call void @llvm.lifetime.start.p0(i64 4, ptr %19) #6
  call void @llvm.lifetime.start.p0(i64 4, ptr %20) #6
  call void @llvm.lifetime.start.p0(i64 4, ptr %21) #6
  call void @llvm.lifetime.start.p0(i64 4, ptr %22) #6
  call void @llvm.lifetime.start.p0(i64 4, ptr %23) #6
  %25 = load ptr, ptr %6, align 8, !tbaa !3
  %26 = getelementptr inbounds nuw %struct.DdManager, ptr %25, i32 0, i32 37
  %27 = load ptr, ptr %26, align 8, !tbaa !32
  %28 = load ptr, ptr %9, align 8, !tbaa !8
  %29 = getelementptr inbounds nuw %struct.DdNode, ptr %28, i32 0, i32 0
  %30 = load i32, ptr %29, align 8, !tbaa !33
  %31 = zext i32 %30 to i64
  %32 = getelementptr inbounds nuw i32, ptr %27, i64 %31
  %33 = load i32, ptr %32, align 4, !tbaa !10
  store i32 %33, ptr %19, align 4, !tbaa !10
  %34 = load ptr, ptr %7, align 8, !tbaa !8
  %35 = ptrtoint ptr %34 to i64
  %36 = and i64 %35, -2
  %37 = inttoptr i64 %36 to ptr
  store ptr %37, ptr %10, align 8, !tbaa !8
  %38 = load ptr, ptr %10, align 8, !tbaa !8
  %39 = getelementptr inbounds nuw %struct.DdNode, ptr %38, i32 0, i32 0
  %40 = load i32, ptr %39, align 8, !tbaa !33
  %41 = icmp eq i32 %40, 2147483647
  br i1 %41, label %42, label %46

42:                                               ; preds = %4
  %43 = load ptr, ptr %10, align 8, !tbaa !8
  %44 = getelementptr inbounds nuw %struct.DdNode, ptr %43, i32 0, i32 0
  %45 = load i32, ptr %44, align 8, !tbaa !33
  br label %56

46:                                               ; preds = %4
  %47 = load ptr, ptr %6, align 8, !tbaa !3
  %48 = getelementptr inbounds nuw %struct.DdManager, ptr %47, i32 0, i32 37
  %49 = load ptr, ptr %48, align 8, !tbaa !32
  %50 = load ptr, ptr %10, align 8, !tbaa !8
  %51 = getelementptr inbounds nuw %struct.DdNode, ptr %50, i32 0, i32 0
  %52 = load i32, ptr %51, align 8, !tbaa !33
  %53 = zext i32 %52 to i64
  %54 = getelementptr inbounds nuw i32, ptr %49, i64 %53
  %55 = load i32, ptr %54, align 4, !tbaa !10
  br label %56

56:                                               ; preds = %46, %42
  %57 = phi i32 [ %45, %42 ], [ %55, %46 ]
  store i32 %57, ptr %20, align 4, !tbaa !10
  %58 = load i32, ptr %20, align 4, !tbaa !10
  %59 = load i32, ptr %19, align 4, !tbaa !10
  %60 = icmp ugt i32 %58, %59
  br i1 %60, label %61, label %63

61:                                               ; preds = %56
  %62 = load ptr, ptr %7, align 8, !tbaa !8
  store ptr %62, ptr %5, align 8
  store i32 1, ptr %24, align 4
  br label %261

63:                                               ; preds = %56
  %64 = load ptr, ptr %7, align 8, !tbaa !8
  %65 = ptrtoint ptr %64 to i64
  %66 = and i64 %65, 1
  %67 = trunc i64 %66 to i32
  store i32 %67, ptr %23, align 4, !tbaa !10
  %68 = load ptr, ptr %6, align 8, !tbaa !3
  %69 = load ptr, ptr %10, align 8, !tbaa !8
  %70 = load ptr, ptr %8, align 8, !tbaa !8
  %71 = load ptr, ptr %9, align 8, !tbaa !8
  %72 = call ptr @cuddCacheLookup(ptr noundef %68, i64 noundef 46, ptr noundef %69, ptr noundef %70, ptr noundef %71)
  store ptr %72, ptr %16, align 8, !tbaa !8
  %73 = load ptr, ptr %16, align 8, !tbaa !8
  %74 = icmp ne ptr %73, null
  br i1 %74, label %75, label %82

75:                                               ; preds = %63
  %76 = load ptr, ptr %16, align 8, !tbaa !8
  %77 = ptrtoint ptr %76 to i64
  %78 = load i32, ptr %23, align 4, !tbaa !10
  %79 = sext i32 %78 to i64
  %80 = xor i64 %77, %79
  %81 = inttoptr i64 %80 to ptr
  store ptr %81, ptr %5, align 8
  store i32 1, ptr %24, align 4
  br label %261

82:                                               ; preds = %63
  %83 = load i32, ptr %20, align 4, !tbaa !10
  %84 = load i32, ptr %19, align 4, !tbaa !10
  %85 = icmp eq i32 %83, %84
  br i1 %85, label %86, label %104

86:                                               ; preds = %82
  %87 = load ptr, ptr %10, align 8, !tbaa !8
  %88 = getelementptr inbounds nuw %struct.DdNode, ptr %87, i32 0, i32 3
  %89 = getelementptr inbounds nuw %struct.DdChildren, ptr %88, i32 0, i32 0
  %90 = load ptr, ptr %89, align 8, !tbaa !34
  store ptr %90, ptr %12, align 8, !tbaa !8
  %91 = load ptr, ptr %10, align 8, !tbaa !8
  %92 = getelementptr inbounds nuw %struct.DdNode, ptr %91, i32 0, i32 3
  %93 = getelementptr inbounds nuw %struct.DdChildren, ptr %92, i32 0, i32 1
  %94 = load ptr, ptr %93, align 8, !tbaa !34
  store ptr %94, ptr %13, align 8, !tbaa !8
  %95 = load ptr, ptr %6, align 8, !tbaa !3
  %96 = load ptr, ptr %8, align 8, !tbaa !8
  %97 = load ptr, ptr %12, align 8, !tbaa !8
  %98 = load ptr, ptr %13, align 8, !tbaa !8
  %99 = call ptr @cuddBddIteRecur(ptr noundef %95, ptr noundef %96, ptr noundef %97, ptr noundef %98)
  store ptr %99, ptr %16, align 8, !tbaa !8
  %100 = load ptr, ptr %16, align 8, !tbaa !8
  %101 = icmp eq ptr %100, null
  br i1 %101, label %102, label %103

102:                                              ; preds = %86
  store ptr null, ptr %5, align 8
  store i32 1, ptr %24, align 4
  br label %261

103:                                              ; preds = %86
  br label %249

104:                                              ; preds = %82
  %105 = load ptr, ptr %8, align 8, !tbaa !8
  %106 = ptrtoint ptr %105 to i64
  %107 = and i64 %106, -2
  %108 = inttoptr i64 %107 to ptr
  store ptr %108, ptr %11, align 8, !tbaa !8
  %109 = load ptr, ptr %11, align 8, !tbaa !8
  %110 = getelementptr inbounds nuw %struct.DdNode, ptr %109, i32 0, i32 0
  %111 = load i32, ptr %110, align 8, !tbaa !33
  %112 = icmp eq i32 %111, 2147483647
  br i1 %112, label %113, label %117

113:                                              ; preds = %104
  %114 = load ptr, ptr %11, align 8, !tbaa !8
  %115 = getelementptr inbounds nuw %struct.DdNode, ptr %114, i32 0, i32 0
  %116 = load i32, ptr %115, align 8, !tbaa !33
  br label %127

117:                                              ; preds = %104
  %118 = load ptr, ptr %6, align 8, !tbaa !3
  %119 = getelementptr inbounds nuw %struct.DdManager, ptr %118, i32 0, i32 37
  %120 = load ptr, ptr %119, align 8, !tbaa !32
  %121 = load ptr, ptr %11, align 8, !tbaa !8
  %122 = getelementptr inbounds nuw %struct.DdNode, ptr %121, i32 0, i32 0
  %123 = load i32, ptr %122, align 8, !tbaa !33
  %124 = zext i32 %123 to i64
  %125 = getelementptr inbounds nuw i32, ptr %120, i64 %124
  %126 = load i32, ptr %125, align 4, !tbaa !10
  br label %127

127:                                              ; preds = %117, %113
  %128 = phi i32 [ %116, %113 ], [ %126, %117 ]
  store i32 %128, ptr %21, align 4, !tbaa !10
  %129 = load i32, ptr %20, align 4, !tbaa !10
  %130 = load i32, ptr %21, align 4, !tbaa !10
  %131 = icmp ugt i32 %129, %130
  br i1 %131, label %132, label %137

132:                                              ; preds = %127
  %133 = load ptr, ptr %11, align 8, !tbaa !8
  %134 = getelementptr inbounds nuw %struct.DdNode, ptr %133, i32 0, i32 0
  %135 = load i32, ptr %134, align 8, !tbaa !33
  store i32 %135, ptr %22, align 4, !tbaa !10
  %136 = load ptr, ptr %10, align 8, !tbaa !8
  store ptr %136, ptr %13, align 8, !tbaa !8
  store ptr %136, ptr %12, align 8, !tbaa !8
  br label %149

137:                                              ; preds = %127
  %138 = load ptr, ptr %10, align 8, !tbaa !8
  %139 = getelementptr inbounds nuw %struct.DdNode, ptr %138, i32 0, i32 0
  %140 = load i32, ptr %139, align 8, !tbaa !33
  store i32 %140, ptr %22, align 4, !tbaa !10
  %141 = load ptr, ptr %10, align 8, !tbaa !8
  %142 = getelementptr inbounds nuw %struct.DdNode, ptr %141, i32 0, i32 3
  %143 = getelementptr inbounds nuw %struct.DdChildren, ptr %142, i32 0, i32 0
  %144 = load ptr, ptr %143, align 8, !tbaa !34
  store ptr %144, ptr %12, align 8, !tbaa !8
  %145 = load ptr, ptr %10, align 8, !tbaa !8
  %146 = getelementptr inbounds nuw %struct.DdNode, ptr %145, i32 0, i32 3
  %147 = getelementptr inbounds nuw %struct.DdChildren, ptr %146, i32 0, i32 1
  %148 = load ptr, ptr %147, align 8, !tbaa !34
  store ptr %148, ptr %13, align 8, !tbaa !8
  br label %149

149:                                              ; preds = %137, %132
  %150 = load i32, ptr %21, align 4, !tbaa !10
  %151 = load i32, ptr %20, align 4, !tbaa !10
  %152 = icmp ugt i32 %150, %151
  br i1 %152, label %153, label %155

153:                                              ; preds = %149
  %154 = load ptr, ptr %8, align 8, !tbaa !8
  store ptr %154, ptr %15, align 8, !tbaa !8
  store ptr %154, ptr %14, align 8, !tbaa !8
  br label %177

155:                                              ; preds = %149
  %156 = load ptr, ptr %11, align 8, !tbaa !8
  %157 = getelementptr inbounds nuw %struct.DdNode, ptr %156, i32 0, i32 3
  %158 = getelementptr inbounds nuw %struct.DdChildren, ptr %157, i32 0, i32 0
  %159 = load ptr, ptr %158, align 8, !tbaa !34
  store ptr %159, ptr %14, align 8, !tbaa !8
  %160 = load ptr, ptr %11, align 8, !tbaa !8
  %161 = getelementptr inbounds nuw %struct.DdNode, ptr %160, i32 0, i32 3
  %162 = getelementptr inbounds nuw %struct.DdChildren, ptr %161, i32 0, i32 1
  %163 = load ptr, ptr %162, align 8, !tbaa !34
  store ptr %163, ptr %15, align 8, !tbaa !8
  %164 = load ptr, ptr %8, align 8, !tbaa !8
  %165 = load ptr, ptr %11, align 8, !tbaa !8
  %166 = icmp ne ptr %164, %165
  br i1 %166, label %167, label %176

167:                                              ; preds = %155
  %168 = load ptr, ptr %14, align 8, !tbaa !8
  %169 = ptrtoint ptr %168 to i64
  %170 = xor i64 %169, 1
  %171 = inttoptr i64 %170 to ptr
  store ptr %171, ptr %14, align 8, !tbaa !8
  %172 = load ptr, ptr %15, align 8, !tbaa !8
  %173 = ptrtoint ptr %172 to i64
  %174 = xor i64 %173, 1
  %175 = inttoptr i64 %174 to ptr
  store ptr %175, ptr %15, align 8, !tbaa !8
  br label %176

176:                                              ; preds = %167, %155
  br label %177

177:                                              ; preds = %176, %153
  %178 = load ptr, ptr %6, align 8, !tbaa !3
  %179 = load ptr, ptr %12, align 8, !tbaa !8
  %180 = load ptr, ptr %14, align 8, !tbaa !8
  %181 = load ptr, ptr %9, align 8, !tbaa !8
  %182 = call ptr @cuddBddComposeRecur(ptr noundef %178, ptr noundef %179, ptr noundef %180, ptr noundef %181)
  store ptr %182, ptr %17, align 8, !tbaa !8
  %183 = load ptr, ptr %17, align 8, !tbaa !8
  %184 = icmp eq ptr %183, null
  br i1 %184, label %185, label %186

185:                                              ; preds = %177
  store ptr null, ptr %5, align 8
  store i32 1, ptr %24, align 4
  br label %261

186:                                              ; preds = %177
  %187 = load ptr, ptr %17, align 8, !tbaa !8
  %188 = ptrtoint ptr %187 to i64
  %189 = and i64 %188, -2
  %190 = inttoptr i64 %189 to ptr
  %191 = getelementptr inbounds nuw %struct.DdNode, ptr %190, i32 0, i32 1
  %192 = load i32, ptr %191, align 4, !tbaa !35
  %193 = add i32 %192, 1
  store i32 %193, ptr %191, align 4, !tbaa !35
  %194 = load ptr, ptr %6, align 8, !tbaa !3
  %195 = load ptr, ptr %13, align 8, !tbaa !8
  %196 = load ptr, ptr %15, align 8, !tbaa !8
  %197 = load ptr, ptr %9, align 8, !tbaa !8
  %198 = call ptr @cuddBddComposeRecur(ptr noundef %194, ptr noundef %195, ptr noundef %196, ptr noundef %197)
  store ptr %198, ptr %18, align 8, !tbaa !8
  %199 = load ptr, ptr %18, align 8, !tbaa !8
  %200 = icmp eq ptr %199, null
  br i1 %200, label %201, label %204

201:                                              ; preds = %186
  %202 = load ptr, ptr %6, align 8, !tbaa !3
  %203 = load ptr, ptr %17, align 8, !tbaa !8
  call void @Cudd_IterDerefBdd(ptr noundef %202, ptr noundef %203)
  store ptr null, ptr %5, align 8
  store i32 1, ptr %24, align 4
  br label %261

204:                                              ; preds = %186
  %205 = load ptr, ptr %18, align 8, !tbaa !8
  %206 = ptrtoint ptr %205 to i64
  %207 = and i64 %206, -2
  %208 = inttoptr i64 %207 to ptr
  %209 = getelementptr inbounds nuw %struct.DdNode, ptr %208, i32 0, i32 1
  %210 = load i32, ptr %209, align 4, !tbaa !35
  %211 = add i32 %210, 1
  store i32 %211, ptr %209, align 4, !tbaa !35
  %212 = load ptr, ptr %6, align 8, !tbaa !3
  %213 = load ptr, ptr %6, align 8, !tbaa !3
  %214 = getelementptr inbounds nuw %struct.DdManager, ptr %213, i32 0, i32 41
  %215 = load ptr, ptr %214, align 8, !tbaa !28
  %216 = load i32, ptr %22, align 4, !tbaa !10
  %217 = zext i32 %216 to i64
  %218 = getelementptr inbounds nuw ptr, ptr %215, i64 %217
  %219 = load ptr, ptr %218, align 8, !tbaa !8
  %220 = load ptr, ptr %17, align 8, !tbaa !8
  %221 = load ptr, ptr %18, align 8, !tbaa !8
  %222 = call ptr @cuddBddIteRecur(ptr noundef %212, ptr noundef %219, ptr noundef %220, ptr noundef %221)
  store ptr %222, ptr %16, align 8, !tbaa !8
  %223 = load ptr, ptr %16, align 8, !tbaa !8
  %224 = icmp eq ptr %223, null
  br i1 %224, label %225, label %230

225:                                              ; preds = %204
  %226 = load ptr, ptr %6, align 8, !tbaa !3
  %227 = load ptr, ptr %17, align 8, !tbaa !8
  call void @Cudd_IterDerefBdd(ptr noundef %226, ptr noundef %227)
  %228 = load ptr, ptr %6, align 8, !tbaa !3
  %229 = load ptr, ptr %18, align 8, !tbaa !8
  call void @Cudd_IterDerefBdd(ptr noundef %228, ptr noundef %229)
  store ptr null, ptr %5, align 8
  store i32 1, ptr %24, align 4
  br label %261

230:                                              ; preds = %204
  %231 = load ptr, ptr %16, align 8, !tbaa !8
  %232 = ptrtoint ptr %231 to i64
  %233 = and i64 %232, -2
  %234 = inttoptr i64 %233 to ptr
  %235 = getelementptr inbounds nuw %struct.DdNode, ptr %234, i32 0, i32 1
  %236 = load i32, ptr %235, align 4, !tbaa !35
  %237 = add i32 %236, 1
  store i32 %237, ptr %235, align 4, !tbaa !35
  %238 = load ptr, ptr %6, align 8, !tbaa !3
  %239 = load ptr, ptr %17, align 8, !tbaa !8
  call void @Cudd_IterDerefBdd(ptr noundef %238, ptr noundef %239)
  %240 = load ptr, ptr %6, align 8, !tbaa !3
  %241 = load ptr, ptr %18, align 8, !tbaa !8
  call void @Cudd_IterDerefBdd(ptr noundef %240, ptr noundef %241)
  %242 = load ptr, ptr %16, align 8, !tbaa !8
  %243 = ptrtoint ptr %242 to i64
  %244 = and i64 %243, -2
  %245 = inttoptr i64 %244 to ptr
  %246 = getelementptr inbounds nuw %struct.DdNode, ptr %245, i32 0, i32 1
  %247 = load i32, ptr %246, align 4, !tbaa !35
  %248 = add i32 %247, -1
  store i32 %248, ptr %246, align 4, !tbaa !35
  br label %249

249:                                              ; preds = %230, %103
  %250 = load ptr, ptr %6, align 8, !tbaa !3
  %251 = load ptr, ptr %10, align 8, !tbaa !8
  %252 = load ptr, ptr %8, align 8, !tbaa !8
  %253 = load ptr, ptr %9, align 8, !tbaa !8
  %254 = load ptr, ptr %16, align 8, !tbaa !8
  call void @cuddCacheInsert(ptr noundef %250, i64 noundef 46, ptr noundef %251, ptr noundef %252, ptr noundef %253, ptr noundef %254)
  %255 = load ptr, ptr %16, align 8, !tbaa !8
  %256 = ptrtoint ptr %255 to i64
  %257 = load i32, ptr %23, align 4, !tbaa !10
  %258 = sext i32 %257 to i64
  %259 = xor i64 %256, %258
  %260 = inttoptr i64 %259 to ptr
  store ptr %260, ptr %5, align 8
  store i32 1, ptr %24, align 4
  br label %261

261:                                              ; preds = %249, %225, %201, %185, %102, %75, %61
  call void @llvm.lifetime.end.p0(i64 4, ptr %23) #6
  call void @llvm.lifetime.end.p0(i64 4, ptr %22) #6
  call void @llvm.lifetime.end.p0(i64 4, ptr %21) #6
  call void @llvm.lifetime.end.p0(i64 4, ptr %20) #6
  call void @llvm.lifetime.end.p0(i64 4, ptr %19) #6
  call void @llvm.lifetime.end.p0(i64 8, ptr %18) #6
  call void @llvm.lifetime.end.p0(i64 8, ptr %17) #6
  call void @llvm.lifetime.end.p0(i64 8, ptr %16) #6
  call void @llvm.lifetime.end.p0(i64 8, ptr %15) #6
  call void @llvm.lifetime.end.p0(i64 8, ptr %14) #6
  call void @llvm.lifetime.end.p0(i64 8, ptr %13) #6
  call void @llvm.lifetime.end.p0(i64 8, ptr %12) #6
  call void @llvm.lifetime.end.p0(i64 8, ptr %11) #6
  call void @llvm.lifetime.end.p0(i64 8, ptr %10) #6
  %262 = load ptr, ptr %5, align 8
  ret ptr %262
}