; Function Attrs: nounwind uwtable
define ptr @cuddBddComposeRecur(ptr noundef %0, ptr noundef %1, ptr noundef %2, ptr noundef %3) local_unnamed_addr #0 {
  %5 = getelementptr inbounds nuw i8, ptr %0, i64 312
  %6 = load ptr, ptr %5, align 8, !tbaa !29
  %7 = load i32, ptr %3, align 8, !tbaa !30
  %8 = zext i32 %7 to i64
  %9 = getelementptr inbounds nuw i32, ptr %6, i64 %8
  %10 = load i32, ptr %9, align 4, !tbaa !31
  %11 = ptrtoint ptr %1 to i64
  %12 = and i64 %11, -2
  %13 = inttoptr i64 %12 to ptr
  %14 = load i32, ptr %13, align 8, !tbaa !30
  %15 = icmp eq i32 %14, 2147483647
  br i1 %15, label %20, label %16

16:                                               ; preds = %4
  %17 = zext i32 %14 to i64
  %18 = getelementptr inbounds nuw i32, ptr %6, i64 %17
  %19 = load i32, ptr %18, align 4, !tbaa !31
  br label %20

20:                                               ; preds = %4, %16
  %21 = phi i32 [ %19, %16 ], [ 2147483647, %4 ]
  %22 = icmp ugt i32 %21, %10
  br i1 %22, label %113, label %23

23:                                               ; preds = %20
  %24 = tail call ptr @cuddCacheLookup(ptr noundef nonnull %0, i64 noundef 46, ptr noundef nonnull %13, ptr noundef %2, ptr noundef nonnull %3) #7
  %.not = icmp eq ptr %24, null
  br i1 %.not, label %30, label %25

25:                                               ; preds = %23
  %26 = and i64 %11, 1
  %27 = ptrtoint ptr %24 to i64
  %28 = xor i64 %26, %27
  %29 = inttoptr i64 %28 to ptr
  br label %113

30:                                               ; preds = %23
  %31 = icmp eq i32 %21, %10
  br i1 %31, label %32, label %39

32:                                               ; preds = %30
  %33 = getelementptr inbounds nuw i8, ptr %13, i64 16
  %34 = load ptr, ptr %33, align 8, !tbaa !32
  %35 = getelementptr inbounds nuw i8, ptr %13, i64 24
  %36 = load ptr, ptr %35, align 8, !tbaa !32
  %37 = tail call ptr @cuddBddIteRecur(ptr noundef nonnull %0, ptr noundef %2, ptr noundef %34, ptr noundef %36) #7
  %38 = icmp eq ptr %37, null
  br i1 %38, label %113, label %._crit_edge

._crit_edge:                                      ; preds = %32
  %.pre = ptrtoint ptr %37 to i64
  br label %109

39:                                               ; preds = %30
  %40 = ptrtoint ptr %2 to i64
  %41 = and i64 %40, -2
  %42 = inttoptr i64 %41 to ptr
  %43 = load i32, ptr %42, align 8, !tbaa !30
  %44 = icmp eq i32 %43, 2147483647
  br i1 %44, label %50, label %45

45:                                               ; preds = %39
  %46 = load ptr, ptr %5, align 8, !tbaa !29
  %47 = zext i32 %43 to i64
  %48 = getelementptr inbounds nuw i32, ptr %46, i64 %47
  %49 = load i32, ptr %48, align 4, !tbaa !31
  br label %50

50:                                               ; preds = %39, %45
  %51 = phi i32 [ %49, %45 ], [ 2147483647, %39 ]
  %52 = icmp ugt i32 %21, %51
  br i1 %52, label %58, label %53

53:                                               ; preds = %50
  %54 = getelementptr inbounds nuw i8, ptr %13, i64 16
  %55 = load ptr, ptr %54, align 8, !tbaa !32
  %56 = getelementptr inbounds nuw i8, ptr %13, i64 24
  %57 = load ptr, ptr %56, align 8, !tbaa !32
  %.085.pre = load i32, ptr %13, align 8, !tbaa !30
  br label %58

58:                                               ; preds = %50, %53
  %.085 = phi i32 [ %.085.pre, %53 ], [ %43, %50 ]
  %.087 = phi ptr [ %57, %53 ], [ %13, %50 ]
  %.086 = phi ptr [ %55, %53 ], [ %13, %50 ]
  %59 = icmp ugt i32 %51, %21
  br i1 %59, label %72, label %60

60:                                               ; preds = %58
  %61 = getelementptr inbounds nuw i8, ptr %42, i64 16
  %62 = load ptr, ptr %61, align 8, !tbaa !32
  %63 = getelementptr inbounds nuw i8, ptr %42, i64 24
  %64 = load ptr, ptr %63, align 8, !tbaa !32
  %.not101 = icmp eq ptr %2, %42
  br i1 %.not101, label %72, label %65

65:                                               ; preds = %60
  %66 = ptrtoint ptr %62 to i64
  %67 = xor i64 %66, 1
  %68 = inttoptr i64 %67 to ptr
  %69 = ptrtoint ptr %64 to i64
  %70 = xor i64 %69, 1
  %71 = inttoptr i64 %70 to ptr
  br label %72

72:                                               ; preds = %58, %60, %65
  %.089 = phi ptr [ %71, %65 ], [ %64, %60 ], [ %2, %58 ]
  %.088 = phi ptr [ %68, %65 ], [ %62, %60 ], [ %2, %58 ]
  %73 = tail call ptr @cuddBddComposeRecur(ptr noundef nonnull %0, ptr noundef %.086, ptr noundef %.088, ptr noundef nonnull %3)
  %74 = icmp eq ptr %73, null
  br i1 %74, label %113, label %75

75:                                               ; preds = %72
  %76 = ptrtoint ptr %73 to i64
  %77 = and i64 %76, -2
  %78 = inttoptr i64 %77 to ptr
  %79 = getelementptr inbounds nuw i8, ptr %78, i64 4
  %80 = load i32, ptr %79, align 4, !tbaa !33
  %81 = add i32 %80, 1
  store i32 %81, ptr %79, align 4, !tbaa !33
  %82 = tail call ptr @cuddBddComposeRecur(ptr noundef nonnull %0, ptr noundef %.087, ptr noundef %.089, ptr noundef nonnull %3)
  %83 = icmp eq ptr %82, null
  br i1 %83, label %84, label %85

84:                                               ; preds = %75
  tail call void @Cudd_IterDerefBdd(ptr noundef nonnull %0, ptr noundef nonnull %73) #7
  br label %113

85:                                               ; preds = %75
  %86 = ptrtoint ptr %82 to i64
  %87 = and i64 %86, -2
  %88 = inttoptr i64 %87 to ptr
  %89 = getelementptr inbounds nuw i8, ptr %88, i64 4
  %90 = load i32, ptr %89, align 4, !tbaa !33
  %91 = add i32 %90, 1
  store i32 %91, ptr %89, align 4, !tbaa !33
  %92 = getelementptr inbounds nuw i8, ptr %0, i64 344
  %93 = load ptr, ptr %92, align 8, !tbaa !24
  %94 = zext i32 %.085 to i64
  %95 = getelementptr inbounds nuw ptr, ptr %93, i64 %94
  %96 = load ptr, ptr %95, align 8, !tbaa !25
  %97 = tail call ptr @cuddBddIteRecur(ptr noundef nonnull %0, ptr noundef %96, ptr noundef nonnull %73, ptr noundef nonnull %82) #7
  %98 = icmp eq ptr %97, null
  br i1 %98, label %99, label %100

99:                                               ; preds = %85
  tail call void @Cudd_IterDerefBdd(ptr noundef nonnull %0, ptr noundef nonnull %73) #7
  tail call void @Cudd_IterDerefBdd(ptr noundef nonnull %0, ptr noundef nonnull %82) #7
  br label %113

100:                                              ; preds = %85
  %101 = ptrtoint ptr %97 to i64
  %102 = and i64 %101, -2
  %103 = inttoptr i64 %102 to ptr
  %104 = getelementptr inbounds nuw i8, ptr %103, i64 4
  %105 = load i32, ptr %104, align 4, !tbaa !33
  %106 = add i32 %105, 1
  store i32 %106, ptr %104, align 4, !tbaa !33
  tail call void @Cudd_IterDerefBdd(ptr noundef nonnull %0, ptr noundef nonnull %73) #7
  tail call void @Cudd_IterDerefBdd(ptr noundef nonnull %0, ptr noundef nonnull %82) #7
  %107 = load i32, ptr %104, align 4, !tbaa !33
  %108 = add i32 %107, -1
  store i32 %108, ptr %104, align 4, !tbaa !33
  br label %109

109:                                              ; preds = %._crit_edge, %100
  %.pre-phi = phi i64 [ %.pre, %._crit_edge ], [ %101, %100 ]
  %.090 = phi ptr [ %37, %._crit_edge ], [ %97, %100 ]
  tail call void @cuddCacheInsert(ptr noundef nonnull %0, i64 noundef 46, ptr noundef nonnull %13, ptr noundef %2, ptr noundef nonnull %3, ptr noundef nonnull %.090) #7
  %110 = and i64 %11, 1
  %111 = xor i64 %110, %.pre-phi
  %112 = inttoptr i64 %111 to ptr
  br label %113

113:                                              ; preds = %72, %32, %20, %109, %99, %84, %25
  %.0 = phi ptr [ %29, %25 ], [ %112, %109 ], [ null, %84 ], [ null, %99 ], [ %1, %20 ], [ null, %32 ], [ null, %72 ]
  ret ptr %.0
}